; Function Attrs: nounwind uwtable
define void @DrawCircleLines(i32 noundef %0, i32 noundef %1, float noundef %2, i32 %3) local_unnamed_addr #4 {
  %5 = sitofp i32 %0 to float
  %6 = sitofp i32 %1 to float
  %.sroa.0.0.extract.trunc.i = trunc i32 %3 to i8
  %.sroa.2.0.extract.shift.i = lshr i32 %3, 8
  %.sroa.2.0.extract.trunc.i = trunc i32 %.sroa.2.0.extract.shift.i to i8
  %.sroa.3.0.extract.shift.i = lshr i32 %3, 16
  %.sroa.3.0.extract.trunc.i = trunc i32 %.sroa.3.0.extract.shift.i to i8
  %.sroa.4.0.extract.shift.i = lshr i32 %3, 24
  %.sroa.4.0.extract.trunc.i = trunc nuw i32 %.sroa.4.0.extract.shift.i to i8
  tail call void @rlBegin(i32 noundef 1) #16
  tail call void @rlColor4ub(i8 noundef zeroext %.sroa.0.0.extract.trunc.i, i8 noundef zeroext %.sroa.2.0.extract.trunc.i, i8 noundef zeroext %.sroa.3.0.extract.trunc.i, i8 noundef zeroext %.sroa.4.0.extract.trunc.i) #16
  br label %7

7:                                                ; preds = %7, %4
  %.014.i = phi i32 [ 0, %4 ], [ %14, %7 ]
  %8 = uitofp nneg i32 %.014.i to float
  %9 = fmul float %8, 0x3F91DF46A0000000
  %10 = tail call float @cosf(float noundef %9) #16
  %11 = tail call float @llvm.fmuladd.f32(float %10, float %2, float %5)
  %12 = tail call float @sinf(float noundef %9) #16
  %13 = tail call float @llvm.fmuladd.f32(float %12, float %2, float %6)
  tail call void @rlVertex2f(float noundef %11, float noundef %13) #16
  %14 = add nuw nsw i32 %.014.i, 10
  %15 = uitofp nneg i32 %14 to float
  %16 = fmul float %15, 0x3F91DF46A0000000
  %17 = tail call float @cosf(float noundef %16) #16
  %18 = tail call float @llvm.fmuladd.f32(float %17, float %2, float %5)
  %19 = tail call float @sinf(float noundef %16) #16
  %20 = tail call float @llvm.fmuladd.f32(float %19, float %2, float %6)
  tail call void @rlVertex2f(float noundef %18, float noundef %20) #16
  %21 = icmp samesign ult i32 %.014.i, 350
  br i1 %21, label %7, label %DrawCircleLinesV.exit

DrawCircleLinesV.exit:                            ; preds = %7
  tail call void @rlEnd() #16
  ret void
}